; Function Attrs: mustprogress nofree norecurse nosync nounwind willreturn memory(read, argmem: none, inaccessiblemem: none) uwtable
define hidden noundef ptr @_ZN10VM_Version9cpu_brandEv() local_unnamed_addr #3 align 2 {
  %1 = load i32, ptr getelementptr inbounds (i8, ptr @_ZN10VM_Version11_cpuid_infoE, i64 20), align 4
  %2 = and i32 %1, 255
  %.not = icmp eq i32 %2, 0
  br i1 %.not, label %.loopexit, label %.preheader.preheader

.preheader.preheader:                             ; preds = %0
  %umin = tail call i32 @llvm.umin.i32(i32 %2, i32 9)
  %3 = add nuw nsw i32 %umin, 1
  %wide.trip.count = zext nneg i32 %3 to i64
  br label %.preheader

.preheader:                                       ; preds = %.preheader.preheader, %.preheader
  %indvars.iv = phi i64 [ 0, %.preheader.preheader ], [ %indvars.iv.next, %.preheader ]
  %indvars.iv.next = add nuw nsw i64 %indvars.iv, 1
  %exitcond.not = icmp eq i64 %indvars.iv.next, %wide.trip.count
  br i1 %exitcond.not, label %.loopexit.loopexit, label %.preheader, !llvm.loop !11

.loopexit.loopexit:                               ; preds = %.preheader
  %4 = getelementptr inbounds [10 x ptr], ptr @_ZL9_brand_id, i64 0, i64 %indvars.iv
  %5 = load ptr, ptr %4, align 8
  br label %.loopexit

.loopexit:                                        ; preds = %.loopexit.loopexit, %0
  %.1 = phi ptr [ null, %0 ], [ %5, %.loopexit.loopexit ]
  ret ptr %.1
}